target datalayout = "e-m:e-p270:32:32-p271:32:32-p272:64:64-i64:64-i128:128-f80:128-n8:16:32:64-S128"
target triple = "x86_64-pc-linux-gnu"

; Function Attrs: mustprogress nounwind uwtable
define void @_Z13ufmt_64tou_77PDsPimhai(ptr noundef %0, ptr noundef %1, i64 noundef %2, i8 noundef zeroext %3, i8 noundef signext %4, i32 noundef %5) #0 {
  %7 = alloca ptr, align 8
  %8 = alloca ptr, align 8
  %9 = alloca i64, align 8
  %10 = alloca i8, align 1
  %11 = alloca i8, align 1
  %12 = alloca i32, align 4
  %13 = alloca i32, align 4
  %14 = alloca i32, align 4
  %15 = alloca ptr, align 8
  %16 = alloca ptr, align 8
  %17 = alloca i16, align 2
  store ptr %0, ptr %7, align 8, !tbaa !9
  store ptr %1, ptr %8, align 8, !tbaa !12
  store i64 %2, ptr %9, align 8, !tbaa !14
  store i8 %3, ptr %10, align 1, !tbaa !16
  store i8 %4, ptr %11, align 1, !tbaa !16
  store i32 %5, ptr %12, align 4, !tbaa !7
  call void @llvm.lifetime.start.p0(i64 4, ptr %13) #6
  store i32 0, ptr %13, align 4, !tbaa !7
  call void @llvm.lifetime.start.p0(i64 4, ptr %14) #6
  call void @llvm.lifetime.start.p0(i64 8, ptr %15) #6
  call void @llvm.lifetime.start.p0(i64 8, ptr %16) #6
  call void @llvm.lifetime.start.p0(i64 2, ptr %17) #6
  br label %18

18:                                               ; preds = %60, %6
  %19 = load i64, ptr %9, align 8, !tbaa !14
  %20 = load i8, ptr %10, align 1, !tbaa !16
  %21 = zext i8 %20 to i64
  %22 = urem i64 %19, %21
  %23 = trunc i64 %22 to i32
  store i32 %23, ptr %14, align 4, !tbaa !7
  %24 = load i64, ptr %9, align 8, !tbaa !14
  %25 = load i8, ptr %10, align 1, !tbaa !16
  %26 = zext i8 %25 to i64
  %27 = udiv i64 %24, %26
  store i64 %27, ptr %9, align 8, !tbaa !14
  %28 = load i8, ptr %11, align 1, !tbaa !16
  %29 = icmp ne i8 %28, 0
  br i1 %29, label %30, label %41

30:                                               ; preds = %18
  %31 = load i32, ptr %14, align 4, !tbaa !7
  %32 = icmp ule i32 %31, 9
  br i1 %32, label %33, label %36

33:                                               ; preds = %30
  %34 = load i32, ptr %14, align 4, !tbaa !7
  %35 = add i32 48, %34
  br label %39

36:                                               ; preds = %30
  %37 = load i32, ptr %14, align 4, !tbaa !7
  %38 = add i32 87, %37
  br label %39

39:                                               ; preds = %36, %33
  %40 = phi i32 [ %35, %33 ], [ %38, %36 ]
  br label %52

41:                                               ; preds = %18
  %42 = load i32, ptr %14, align 4, !tbaa !7
  %43 = icmp ule i32 %42, 9
  br i1 %43, label %44, label %47

44:                                               ; preds = %41
  %45 = load i32, ptr %14, align 4, !tbaa !7
  %46 = add i32 48, %45
  br label %50

47:                                               ; preds = %41
  %48 = load i32, ptr %14, align 4, !tbaa !7
  %49 = add i32 55, %48
  br label %50

50:                                               ; preds = %47, %44
  %51 = phi i32 [ %46, %44 ], [ %49, %47 ]
  br label %52

52:                                               ; preds = %50, %39
  %53 = phi i32 [ %40, %39 ], [ %51, %50 ]
  %54 = trunc i32 %53 to i16
  %55 = load ptr, ptr %7, align 8, !tbaa !9
  %56 = load i32, ptr %13, align 4, !tbaa !7
  %57 = add nsw i32 %56, 1
  store i32 %57, ptr %13, align 4, !tbaa !7
  %58 = sext i32 %56 to i64
  %59 = getelementptr inbounds i16, ptr %55, i64 %58
  store i16 %54, ptr %59, align 2, !tbaa !3
  br label %60

60:                                               ; preds = %52
  %61 = load i64, ptr %9, align 8, !tbaa !14
  %62 = icmp ne i64 %61, 0
  br i1 %62, label %18, label %63, !llvm.loop !17

63:                                               ; preds = %60
  %64 = load i32, ptr %12, align 4, !tbaa !7
  %65 = icmp ne i32 %64, -1
  br i1 %65, label %66, label %89

66:                                               ; preds = %63
  %67 = load i32, ptr %13, align 4, !tbaa !7
  %68 = load i32, ptr %12, align 4, !tbaa !7
  %69 = icmp slt i32 %67, %68
  br i1 %69, label %70, label %89

70:                                               ; preds = %66
  br label %71

71:                                               ; preds = %82, %70
  %72 = load i32, ptr %13, align 4, !tbaa !7
  %73 = load i32, ptr %12, align 4, !tbaa !7
  %74 = icmp slt i32 %72, %73
  br i1 %74, label %75, label %80

75:                                               ; preds = %71
  %76 = load i32, ptr %13, align 4, !tbaa !7
  %77 = load ptr, ptr %8, align 8, !tbaa !12
  %78 = load i32, ptr %77, align 4, !tbaa !7
  %79 = icmp slt i32 %76, %78
  br label %80

80:                                               ; preds = %75, %71
  %81 = phi i1 [ false, %71 ], [ %79, %75 ]
  br i1 %81, label %82, label %88

82:                                               ; preds = %80
  %83 = load ptr, ptr %7, align 8, !tbaa !9
  %84 = load i32, ptr %13, align 4, !tbaa !7
  %85 = add nsw i32 %84, 1
  store i32 %85, ptr %13, align 4, !tbaa !7
  %86 = sext i32 %84 to i64
  %87 = getelementptr inbounds i16, ptr %83, i64 %86
  store i16 48, ptr %87, align 2, !tbaa !3
  br label %71, !llvm.loop !19

88:                                               ; preds = %80
  br label %89

89:                                               ; preds = %88, %66, %63
  %90 = load ptr, ptr %7, align 8, !tbaa !9
  store ptr %90, ptr %15, align 8, !tbaa !9
  %91 = load ptr, ptr %7, align 8, !tbaa !9
  %92 = load i32, ptr %13, align 4, !tbaa !7
  %93 = sext i32 %92 to i64
  %94 = getelementptr inbounds i16, ptr %91, i64 %93
  store ptr %94, ptr %16, align 8, !tbaa !9
  br label %95

95:                                               ; preds = %100, %89
  %96 = load ptr, ptr %15, align 8, !tbaa !9
  %97 = load ptr, ptr %16, align 8, !tbaa !9
  %98 = getelementptr inbounds i16, ptr %97, i32 -1
  store ptr %98, ptr %16, align 8, !tbaa !9
  %99 = icmp ult ptr %96, %98
  br i1 %99, label %100, label %109

100:                                              ; preds = %95
  %101 = load ptr, ptr %15, align 8, !tbaa !9
  %102 = load i16, ptr %101, align 2, !tbaa !3
  store i16 %102, ptr %17, align 2, !tbaa !3
  %103 = load ptr, ptr %16, align 8, !tbaa !9
  %104 = load i16, ptr %103, align 2, !tbaa !3
  %105 = load ptr, ptr %15, align 8, !tbaa !9
  %106 = getelementptr inbounds nuw i16, ptr %105, i32 1
  store ptr %106, ptr %15, align 8, !tbaa !9
  store i16 %104, ptr %105, align 2, !tbaa !3
  %107 = load i16, ptr %17, align 2, !tbaa !3
  %108 = load ptr, ptr %16, align 8, !tbaa !9
  store i16 %107, ptr %108, align 2, !tbaa !3
  br label %95, !llvm.loop !20

109:                                              ; preds = %95
  %110 = load i32, ptr %13, align 4, !tbaa !7
  %111 = load ptr, ptr %8, align 8, !tbaa !12
  store i32 %110, ptr %111, align 4, !tbaa !7
  call void @llvm.lifetime.end.p0(i64 2, ptr %17) #6
  call void @llvm.lifetime.end.p0(i64 8, ptr %16) #6
  call void @llvm.lifetime.end.p0(i64 8, ptr %15) #6
  call void @llvm.lifetime.end.p0(i64 4, ptr %14) #6
  call void @llvm.lifetime.end.p0(i64 4, ptr %13) #6
  ret void
}