; Function Attrs: mustprogress nofree norecurse nosync nounwind memory(argmem: readwrite) uwtable
define void @_Z13ufmt_64tou_77PDsPimhai(ptr noundef %0, ptr noundef captures(none) %1, i64 noundef %2, i8 noundef zeroext %3, i8 noundef signext %4, i32 noundef %5) local_unnamed_addr #2 {
  %7 = zext i8 %3 to i64
  %.not = icmp eq i8 %4, 0
  br i1 %.not, label %.split.us, label %.split

.split.us:                                        ; preds = %6, %.split.us
  %indvars.iv52 = phi i64 [ %indvars.iv.next53, %.split.us ], [ 0, %6 ]
  %.0.us = phi i64 [ %10, %.split.us ], [ %2, %6 ]
  %8 = urem i64 %.0.us, %7
  %9 = trunc nuw nsw i64 %8 to i16
  %10 = udiv i64 %.0.us, %7
  %11 = icmp samesign ult i64 %8, 10
  %.v.us = select i1 %11, i16 48, i16 55
  %12 = add nuw nsw i16 %.v.us, %9
  %indvars.iv.next53 = add nuw nsw i64 %indvars.iv52, 1
  %13 = getelementptr inbounds nuw i16, ptr %0, i64 %indvars.iv52
  store i16 %12, ptr %13, align 2, !tbaa !3
  %.not43.us = icmp ult i64 %.0.us, %7
  br i1 %.not43.us, label %.split46.us, label %.split.us, !llvm.loop !7

.split:                                           ; preds = %6, %.split
  %indvars.iv = phi i64 [ %indvars.iv.next, %.split ], [ 0, %6 ]
  %.0 = phi i64 [ %16, %.split ], [ %2, %6 ]
  %14 = urem i64 %.0, %7
  %15 = trunc nuw nsw i64 %14 to i16
  %16 = udiv i64 %.0, %7
  %17 = icmp samesign ult i64 %14, 10
  %.v42 = select i1 %17, i16 48, i16 87
  %18 = add nuw nsw i16 %.v42, %15
  %indvars.iv.next = add nuw nsw i64 %indvars.iv, 1
  %19 = getelementptr inbounds nuw i16, ptr %0, i64 %indvars.iv
  store i16 %18, ptr %19, align 2, !tbaa !3
  %.not43 = icmp ult i64 %.0, %7
  br i1 %.not43, label %.split46.us, label %.split, !llvm.loop !7

.split46.us:                                      ; preds = %.split, %.split.us
  %.us-phi.in = phi i64 [ %indvars.iv.next53, %.split.us ], [ %indvars.iv.next, %.split ]
  %.us-phi = trunc i64 %.us-phi.in to i32
  %.not44 = icmp ne i32 %5, -1
  %20 = icmp sgt i32 %5, %.us-phi
  %or.cond = select i1 %.not44, i1 %20, i1 false
  br i1 %or.cond, label %.preheader, label %.critedge

.preheader:                                       ; preds = %.split46.us
  %21 = load i32, ptr %1, align 4, !tbaa !9
  %22 = and i64 %.us-phi.in, 4294967295
  br label %23

23:                                               ; preds = %.preheader, %26
  %indvars.iv55 = phi i64 [ %22, %.preheader ], [ %indvars.iv.next56, %26 ]
  %24 = trunc nuw i64 %indvars.iv55 to i32
  %25 = icmp sgt i32 %21, %24
  br i1 %25, label %26, label %.critedge

26:                                               ; preds = %23
  %indvars.iv.next56 = add nuw nsw i64 %indvars.iv55, 1
  %indvars = trunc i64 %indvars.iv.next56 to i32
  %27 = getelementptr inbounds nuw i16, ptr %0, i64 %indvars.iv55
  store i16 48, ptr %27, align 2, !tbaa !3
  %28 = icmp sgt i32 %5, %indvars
  br i1 %28, label %23, label %.critedge, !llvm.loop !11

.critedge:                                        ; preds = %23, %26, %.split46.us
  %.1 = phi i32 [ %.us-phi, %.split46.us ], [ %indvars, %26 ], [ %24, %23 ]
  %29 = sext i32 %.1 to i64
  %30 = getelementptr inbounds i16, ptr %0, i64 %29
  %31 = getelementptr inbounds i8, ptr %30, i64 -2
  %32 = icmp ult ptr %0, %31
  br i1 %32, label %.lr.ph, label %._crit_edge

.lr.ph:                                           ; preds = %.critedge, %.lr.ph
  %33 = phi ptr [ %37, %.lr.ph ], [ %31, %.critedge ]
  %.03548 = phi ptr [ %36, %.lr.ph ], [ %0, %.critedge ]
  %34 = load i16, ptr %.03548, align 2, !tbaa !3
  %35 = load i16, ptr %33, align 2, !tbaa !3
  %36 = getelementptr inbounds nuw i8, ptr %.03548, i64 2
  store i16 %35, ptr %.03548, align 2, !tbaa !3
  store i16 %34, ptr %33, align 2, !tbaa !3
  %37 = getelementptr inbounds i8, ptr %33, i64 -2
  %38 = icmp ult ptr %36, %37
  br i1 %38, label %.lr.ph, label %._crit_edge, !llvm.loop !12

._crit_edge:                                      ; preds = %.lr.ph, %.critedge
  store i32 %.1, ptr %1, align 4, !tbaa !9
  ret void
}